; Function Attrs: nounwind uwtable
define hidden noundef i32 @phpdbg_do_set_stepping(ptr noundef %0) #0 {
  %.not = icmp eq ptr %0, null
  br i1 %.not, label %4, label %2

2:                                                ; preds = %1
  %3 = load i32, ptr %0, align 8
  switch i32 %3, label %27 [
    i32 0, label %4
    i32 5, label %10
  ]

4:                                                ; preds = %2, %1
  %5 = load i32, ptr getelementptr inbounds (%struct._zend_phpdbg_globals, ptr @phpdbg_globals, i64 0, i32 39, i64 1), align 4
  %6 = load i64, ptr getelementptr inbounds (%struct._zend_phpdbg_globals, ptr @phpdbg_globals, i64 0, i32 53), align 8
  %7 = and i64 %6, 16384
  %.not12 = icmp eq i64 %7, 0
  %8 = select i1 %.not12, ptr @.str.48, ptr @.str.47
  %9 = tail call i32 (i32, i32, ptr, ...) @phpdbg_print(i32 noundef 3, i32 noundef %5, ptr noundef nonnull @.str.46, ptr noundef nonnull %8) #4
  br label %31

10:                                               ; preds = %2
  %11 = getelementptr inbounds i8, ptr %0, i64 64
  %12 = load i64, ptr %11, align 8
  switch i64 %12, label %.thread [
    i64 6, label %13
    i64 4, label %19
  ]

13:                                               ; preds = %10
  %14 = getelementptr inbounds i8, ptr %0, i64 56
  %15 = load ptr, ptr %14, align 8
  %bcmp = tail call i32 @bcmp(ptr noundef nonnull dereferenceable(7) %15, ptr noundef nonnull dereferenceable(7) @.str.47, i64 7)
  %.not9 = icmp eq i32 %bcmp, 0
  br i1 %.not9, label %16, label %.thread

16:                                               ; preds = %13
  %17 = load i64, ptr getelementptr inbounds (%struct._zend_phpdbg_globals, ptr @phpdbg_globals, i64 0, i32 53), align 8
  %18 = or i64 %17, 16384
  store i64 %18, ptr getelementptr inbounds (%struct._zend_phpdbg_globals, ptr @phpdbg_globals, i64 0, i32 53), align 8
  br label %31

19:                                               ; preds = %10
  %20 = getelementptr inbounds i8, ptr %0, i64 56
  %21 = load ptr, ptr %20, align 8
  %bcmp10 = tail call i32 @bcmp(ptr noundef nonnull dereferenceable(5) %21, ptr noundef nonnull dereferenceable(5) @.str.48, i64 5)
  %.not11 = icmp eq i32 %bcmp10, 0
  br i1 %.not11, label %22, label %.thread

22:                                               ; preds = %19
  %23 = load i64, ptr getelementptr inbounds (%struct._zend_phpdbg_globals, ptr @phpdbg_globals, i64 0, i32 53), align 8
  %24 = and i64 %23, -16385
  store i64 %24, ptr getelementptr inbounds (%struct._zend_phpdbg_globals, ptr @phpdbg_globals, i64 0, i32 53), align 8
  br label %31

.thread:                                          ; preds = %10, %13, %19
  %25 = load i32, ptr getelementptr inbounds (%struct._zend_phpdbg_globals, ptr @phpdbg_globals, i64 0, i32 39, i64 1), align 4
  %26 = tail call i32 (i32, i32, ptr, ...) @phpdbg_print(i32 noundef 1, i32 noundef %25, ptr noundef nonnull @.str.49) #4
  br label %31

27:                                               ; preds = %2
  %28 = load i32, ptr getelementptr inbounds (%struct._zend_phpdbg_globals, ptr @phpdbg_globals, i64 0, i32 39, i64 1), align 4
  %29 = tail call ptr @phpdbg_get_param_type(ptr noundef nonnull %0) #4
  %30 = tail call i32 (i32, i32, ptr, ...) @phpdbg_print(i32 noundef 1, i32 noundef %28, ptr noundef nonnull @.str.45, ptr noundef %29) #4
  br label %31

31:                                               ; preds = %27, %22, %.thread, %16, %4
  ret i32 0
}